target datalayout = "e-m:e-p270:32:32-p271:32:32-p272:64:64-i64:64-i128:128-f80:128-n8:16:32:64-S128"
target triple = "x86_64-unknown-linux-gnu"

%struct.IDEBus = type { %struct.BusState, ptr, ptr, [2 x %struct.IDEState], ptr, i32, i32, ptr, i8, i8, ptr, i32, i8, i64, i32, %struct.PortioList, %struct.PortioList, ptr }
%struct.BusState = type { %struct.Object, ptr, ptr, ptr, i32, i8, i8, i32, %union.BusChildHead, %struct.BusStateEntry, %struct.ResettableState }
%struct.Object = type { ptr, ptr, ptr, i32, ptr }
%union.BusChildHead = type { %struct.QTailQLink }
%struct.QTailQLink = type { ptr, ptr }
%struct.BusStateEntry = type { ptr, ptr }
%struct.ResettableState = type { i32, i8, i8 }
%struct.IDEState = type { ptr, i8, i32, i32, i32, i32, i32, i32, i32, i64, i32, i32, [512 x i8], i32, [21 x i8], [41 x i8], i64, i8, i8, i32, i8, i8, i8, i8, i8, i8, i8, i8, i8, i8, i8, i8, i8, ptr, [9 x i8], %struct.unreported_events, i8, i8, i8, i8, i8, i32, i32, i32, i32, i32, i32, %struct.BlockAcctCookie, ptr, %struct.QEMUIOVector, %struct.anon.1, i64, i32, %struct.QEMUSGList, i32, ptr, ptr, ptr, ptr, i32, i32, i32, i8, ptr, i32, i8, i32, ptr, i32, i32, i8, i8, i32, i8, ptr, i32 }
%struct.unreported_events = type { i8, i8 }
%struct.BlockAcctCookie = type { i64, i64, i32 }
%struct.QEMUIOVector = type { ptr, i32, %union.anon }
%union.anon = type { %struct.anon }
%struct.anon = type { i32, %struct.iovec }
%struct.iovec = type { ptr, i64 }
%struct.anon.1 = type { ptr }
%struct.QEMUSGList = type { ptr, i32, i32, i64, ptr, ptr }
%struct.PortioList = type { ptr, ptr, ptr, i32, ptr, ptr, ptr, i8 }
%struct.DeviceState = type { %struct.Object, ptr, ptr, i8, i8, i64, ptr, i32, i8, ptr, %struct.NamedGPIOListHead, %struct.NamedClockListHead, %struct.BusStateHead, i32, i32, i32, %struct.ResettableState, ptr, %struct.MemReentrancyGuard }
%struct.NamedGPIOListHead = type { ptr }
%struct.NamedClockListHead = type { ptr }
%struct.BusStateHead = type { ptr }
%struct.MemReentrancyGuard = type { i8 }
%struct.IDEDevice = type { %struct.DeviceState, i32, %struct.BlockConf, i32, ptr, ptr, ptr, i64, i16 }
%struct.BlockConf = type { ptr, i32, i32, i32, i32, i32, i32, i32, i32, i32, i32, i32, i32, i32, i32, i8, i32, i32, i32, i32 }

@.str.12 = private unnamed_addr constant [22 x i8] c"../qemu/hw/ide/qdev.c\00", align 1
@__func__.ide_dev_initfn = private unnamed_addr constant [15 x i8] c"ide_dev_initfn\00", align 1
@.str.13 = private unnamed_addr constant [19 x i8] c"No drive specified\00", align 1
@.str.14 = private unnamed_addr constant [9 x i8] c"ret == 0\00", align 1
@__PRETTY_FUNCTION__.ide_dev_initfn = private unnamed_addr constant [57 x i8] c"void ide_dev_initfn(IDEDevice *, IDEDriveKind, Error **)\00", align 1
@.str.15 = private unnamed_addr constant [40 x i8] c"discard_granularity must be 512 for ide\00", align 1
@.str.16 = private unnamed_addr constant [39 x i8] c"logical_block_size must be 512 for IDE\00", align 1
@.str.17 = private unnamed_addr constant [8 x i8] c"/disk@1\00", align 1
@.str.18 = private unnamed_addr constant [8 x i8] c"/disk@0\00", align 1

; Function Attrs: nounwind sspstrong uwtable
define internal void @ide_dev_initfn(ptr noundef %dev, i32 noundef %kind, ptr noundef %errp) #0 {
entry:
  %dev.addr = alloca ptr, align 8
  %kind.addr = alloca i32, align 4
  %errp.addr = alloca ptr, align 8
  %bus = alloca ptr, align 8
  %tmp = alloca ptr, align 8
  %__mptr = alloca ptr, align 8
  %tmp1 = alloca ptr, align 8
  %s = alloca ptr, align 8
  %ret = alloca i32, align 4
  store ptr %dev, ptr %dev.addr, align 8
  store i32 %kind, ptr %kind.addr, align 4
  store ptr %errp, ptr %errp.addr, align 8
  %0 = load ptr, ptr %dev.addr, align 8
  %qdev = getelementptr inbounds %struct.IDEDevice, ptr %0, i32 0, i32 0
  %parent_bus = getelementptr inbounds %struct.DeviceState, ptr %qdev, i32 0, i32 9
  %1 = load ptr, ptr %parent_bus, align 8
  store ptr %1, ptr %__mptr, align 8
  %2 = load ptr, ptr %__mptr, align 8
  %add.ptr = getelementptr i8, ptr %2, i64 0
  store ptr %add.ptr, ptr %tmp1, align 8
  %3 = load ptr, ptr %tmp1, align 8
  store ptr %3, ptr %tmp, align 8
  %4 = load ptr, ptr %tmp, align 8
  store ptr %4, ptr %bus, align 8
  %5 = load ptr, ptr %bus, align 8
  %ifs = getelementptr inbounds %struct.IDEBus, ptr %5, i32 0, i32 3
  %arraydecay = getelementptr inbounds [2 x %struct.IDEState], ptr %ifs, i64 0, i64 0
  %6 = load ptr, ptr %dev.addr, align 8
  %unit = getelementptr inbounds %struct.IDEDevice, ptr %6, i32 0, i32 1
  %7 = load i32, ptr %unit, align 8
  %idx.ext = zext i32 %7 to i64
  %add.ptr2 = getelementptr %struct.IDEState, ptr %arraydecay, i64 %idx.ext
  store ptr %add.ptr2, ptr %s, align 8
  %8 = load ptr, ptr %dev.addr, align 8
  %conf = getelementptr inbounds %struct.IDEDevice, ptr %8, i32 0, i32 2
  %blk = getelementptr inbounds %struct.BlockConf, ptr %conf, i32 0, i32 0
  %9 = load ptr, ptr %blk, align 8
  %tobool = icmp ne ptr %9, null
  br i1 %tobool, label %if.end15, label %if.then

if.then:                                          ; preds = %entry
  %10 = load i32, ptr %kind.addr, align 4
  %cmp = icmp ne i32 %10, 1
  br i1 %cmp, label %if.then3, label %if.else

if.then3:                                         ; preds = %if.then
  %11 = load ptr, ptr %errp.addr, align 8
  call void (ptr, ptr, i32, ptr, ptr, ...) @error_setg_internal(ptr noundef %11, ptr noundef @.str.12, i32 noundef 173, ptr noundef @__func__.ide_dev_initfn, ptr noundef @.str.13)
  br label %return

if.else:                                          ; preds = %if.then
  %call = call ptr @qemu_get_aio_context()
  %call4 = call ptr @blk_new(ptr noundef %call, i64 noundef 0, i64 noundef 15)
  %12 = load ptr, ptr %dev.addr, align 8
  %conf5 = getelementptr inbounds %struct.IDEDevice, ptr %12, i32 0, i32 2
  %blk6 = getelementptr inbounds %struct.BlockConf, ptr %conf5, i32 0, i32 0
  store ptr %call4, ptr %blk6, align 8
  %13 = load ptr, ptr %dev.addr, align 8
  %conf7 = getelementptr inbounds %struct.IDEDevice, ptr %13, i32 0, i32 2
  %blk8 = getelementptr inbounds %struct.BlockConf, ptr %conf7, i32 0, i32 0
  %14 = load ptr, ptr %blk8, align 8
  %15 = load ptr, ptr %dev.addr, align 8
  %qdev9 = getelementptr inbounds %struct.IDEDevice, ptr %15, i32 0, i32 0
  %call10 = call i32 @blk_attach_dev(ptr noundef %14, ptr noundef %qdev9)
  store i32 %call10, ptr %ret, align 4
  %16 = load i32, ptr %ret, align 4
  %cmp11 = icmp eq i32 %16, 0
  br i1 %cmp11, label %if.then12, label %if.else13

if.then12:                                        ; preds = %if.else
  br label %if.end

if.else13:                                        ; preds = %if.else
  call void @__assert_fail(ptr noundef @.str.14, ptr noundef @.str.12, i32 noundef 179, ptr noundef @__PRETTY_FUNCTION__.ide_dev_initfn) #5
  unreachable

if.end:                                           ; preds = %if.then12
  br label %if.end14

if.end14:                                         ; preds = %if.end
  br label %if.end15

if.end15:                                         ; preds = %if.end14, %entry
  %17 = load ptr, ptr %dev.addr, align 8
  %conf16 = getelementptr inbounds %struct.IDEDevice, ptr %17, i32 0, i32 2
  %discard_granularity = getelementptr inbounds %struct.BlockConf, ptr %conf16, i32 0, i32 7
  %18 = load i32, ptr %discard_granularity, align 8
  %cmp17 = icmp eq i32 %18, -1
  br i1 %cmp17, label %if.then18, label %if.else21

if.then18:                                        ; preds = %if.end15
  %19 = load ptr, ptr %dev.addr, align 8
  %conf19 = getelementptr inbounds %struct.IDEDevice, ptr %19, i32 0, i32 2
  %discard_granularity20 = getelementptr inbounds %struct.BlockConf, ptr %conf19, i32 0, i32 7
  store i32 512, ptr %discard_granularity20, align 8
  br label %if.end30

if.else21:                                        ; preds = %if.end15
  %20 = load ptr, ptr %dev.addr, align 8
  %conf22 = getelementptr inbounds %struct.IDEDevice, ptr %20, i32 0, i32 2
  %discard_granularity23 = getelementptr inbounds %struct.BlockConf, ptr %conf22, i32 0, i32 7
  %21 = load i32, ptr %discard_granularity23, align 8
  %tobool24 = icmp ne i32 %21, 0
  br i1 %tobool24, label %land.lhs.true, label %if.end29

land.lhs.true:                                    ; preds = %if.else21
  %22 = load ptr, ptr %dev.addr, align 8
  %conf25 = getelementptr inbounds %struct.IDEDevice, ptr %22, i32 0, i32 2
  %discard_granularity26 = getelementptr inbounds %struct.BlockConf, ptr %conf25, i32 0, i32 7
  %23 = load i32, ptr %discard_granularity26, align 8
  %cmp27 = icmp ne i32 %23, 512
  br i1 %cmp27, label %if.then28, label %if.end29

if.then28:                                        ; preds = %land.lhs.true
  %24 = load ptr, ptr %errp.addr, align 8
  call void (ptr, ptr, i32, ptr, ptr, ...) @error_setg_internal(ptr noundef %24, ptr noundef @.str.12, i32 noundef 187, ptr noundef @__func__.ide_dev_initfn, ptr noundef @.str.15)
  br label %return

if.end29:                                         ; preds = %land.lhs.true, %if.else21
  br label %if.end30

if.end30:                                         ; preds = %if.end29, %if.then18
  %25 = load ptr, ptr %dev.addr, align 8
  %conf31 = getelementptr inbounds %struct.IDEDevice, ptr %25, i32 0, i32 2
  %26 = load ptr, ptr %errp.addr, align 8
  %call32 = call zeroext i1 @blkconf_blocksizes(ptr noundef %conf31, ptr noundef %26)
  br i1 %call32, label %if.end34, label %if.then33

if.then33:                                        ; preds = %if.end30
  br label %return

if.end34:                                         ; preds = %if.end30
  %27 = load ptr, ptr %dev.addr, align 8
  %conf35 = getelementptr inbounds %struct.IDEDevice, ptr %27, i32 0, i32 2
  %logical_block_size = getelementptr inbounds %struct.BlockConf, ptr %conf35, i32 0, i32 3
  %28 = load i32, ptr %logical_block_size, align 8
  %cmp36 = icmp ne i32 %28, 512
  br i1 %cmp36, label %if.then37, label %if.end38

if.then37:                                        ; preds = %if.end34
  %29 = load ptr, ptr %errp.addr, align 8
  call void (ptr, ptr, i32, ptr, ptr, ...) @error_setg_internal(ptr noundef %29, ptr noundef @.str.12, i32 noundef 196, ptr noundef @__func__.ide_dev_initfn, ptr noundef @.str.16)
  br label %return

if.end38:                                         ; preds = %if.end34
  %30 = load i32, ptr %kind.addr, align 4
  %cmp39 = icmp ne i32 %30, 1
  br i1 %cmp39, label %if.then40, label %if.end45

if.then40:                                        ; preds = %if.end38
  %31 = load ptr, ptr %dev.addr, align 8
  %conf41 = getelementptr inbounds %struct.IDEDevice, ptr %31, i32 0, i32 2
  %32 = load ptr, ptr %dev.addr, align 8
  %chs_trans = getelementptr inbounds %struct.IDEDevice, ptr %32, i32 0, i32 3
  %33 = load ptr, ptr %errp.addr, align 8
  %call42 = call zeroext i1 @blkconf_geometry(ptr noundef %conf41, ptr noundef %chs_trans, i32 noundef 65535, i32 noundef 16, i32 noundef 255, ptr noundef %33)
  br i1 %call42, label %if.end44, label %if.then43

if.then43:                                        ; preds = %if.then40
  br label %return

if.end44:                                         ; preds = %if.then40
  br label %if.end45

if.end45:                                         ; preds = %if.end44, %if.end38
  %34 = load ptr, ptr %dev.addr, align 8
  %conf46 = getelementptr inbounds %struct.IDEDevice, ptr %34, i32 0, i32 2
  %35 = load i32, ptr %kind.addr, align 4
  %cmp47 = icmp eq i32 %35, 1
  %36 = load i32, ptr %kind.addr, align 4
  %cmp48 = icmp ne i32 %36, 1
  %37 = load ptr, ptr %errp.addr, align 8
  %call49 = call zeroext i1 @blkconf_apply_backend_options(ptr noundef %conf46, i1 noundef zeroext %cmp47, i1 noundef zeroext %cmp48, ptr noundef %37)
  br i1 %call49, label %if.end51, label %if.then50

if.then50:                                        ; preds = %if.end45
  br label %return

if.end51:                                         ; preds = %if.end45
  %38 = load ptr, ptr %s, align 8
  %39 = load ptr, ptr %dev.addr, align 8
  %conf52 = getelementptr inbounds %struct.IDEDevice, ptr %39, i32 0, i32 2
  %blk53 = getelementptr inbounds %struct.BlockConf, ptr %conf52, i32 0, i32 0
  %40 = load ptr, ptr %blk53, align 8
  %41 = load i32, ptr %kind.addr, align 4
  %42 = load ptr, ptr %dev.addr, align 8
  %version = getelementptr inbounds %struct.IDEDevice, ptr %42, i32 0, i32 4
  %43 = load ptr, ptr %version, align 8
  %44 = load ptr, ptr %dev.addr, align 8
  %serial = getelementptr inbounds %struct.IDEDevice, ptr %44, i32 0, i32 5
  %45 = load ptr, ptr %serial, align 8
  %46 = load ptr, ptr %dev.addr, align 8
  %model = getelementptr inbounds %struct.IDEDevice, ptr %46, i32 0, i32 6
  %47 = load ptr, ptr %model, align 8
  %48 = load ptr, ptr %dev.addr, align 8
  %wwn = getelementptr inbounds %struct.IDEDevice, ptr %48, i32 0, i32 7
  %49 = load i64, ptr %wwn, align 8
  %50 = load ptr, ptr %dev.addr, align 8
  %conf54 = getelementptr inbounds %struct.IDEDevice, ptr %50, i32 0, i32 2
  %cyls = getelementptr inbounds %struct.BlockConf, ptr %conf54, i32 0, i32 8
  %51 = load i32, ptr %cyls, align 4
  %52 = load ptr, ptr %dev.addr, align 8
  %conf55 = getelementptr inbounds %struct.IDEDevice, ptr %52, i32 0, i32 2
  %heads = getelementptr inbounds %struct.BlockConf, ptr %conf55, i32 0, i32 9
  %53 = load i32, ptr %heads, align 8
  %54 = load ptr, ptr %dev.addr, align 8
  %conf56 = getelementptr inbounds %struct.IDEDevice, ptr %54, i32 0, i32 2
  %secs = getelementptr inbounds %struct.BlockConf, ptr %conf56, i32 0, i32 10
  %55 = load i32, ptr %secs, align 4
  %56 = load ptr, ptr %dev.addr, align 8
  %chs_trans57 = getelementptr inbounds %struct.IDEDevice, ptr %56, i32 0, i32 3
  %57 = load i32, ptr %chs_trans57, align 8
  %58 = load ptr, ptr %errp.addr, align 8
  %call58 = call i32 @ide_init_drive(ptr noundef %38, ptr noundef %40, i32 noundef %41, ptr noundef %43, ptr noundef %45, ptr noundef %47, i64 noundef %49, i32 noundef %51, i32 noundef %53, i32 noundef %55, i32 noundef %57, ptr noundef %58)
  %cmp59 = icmp slt i32 %call58, 0
  br i1 %cmp59, label %if.then60, label %if.end61

if.then60:                                        ; preds = %if.end51
  br label %return

if.end61:                                         ; preds = %if.end51
  %59 = load ptr, ptr %dev.addr, align 8
  %version62 = getelementptr inbounds %struct.IDEDevice, ptr %59, i32 0, i32 4
  %60 = load ptr, ptr %version62, align 8
  %tobool63 = icmp ne ptr %60, null
  br i1 %tobool63, label %if.end69, label %if.then64

if.then64:                                        ; preds = %if.end61
  %61 = load ptr, ptr %s, align 8
  %version65 = getelementptr inbounds %struct.IDEState, ptr %61, i32 0, i32 34
  %arraydecay66 = getelementptr inbounds [9 x i8], ptr %version65, i64 0, i64 0
  %call67 = call noalias ptr @g_strdup(ptr noundef %arraydecay66)
  %62 = load ptr, ptr %dev.addr, align 8
  %version68 = getelementptr inbounds %struct.IDEDevice, ptr %62, i32 0, i32 4
  store ptr %call67, ptr %version68, align 8
  br label %if.end69

if.end69:                                         ; preds = %if.then64, %if.end61
  %63 = load ptr, ptr %dev.addr, align 8
  %serial70 = getelementptr inbounds %struct.IDEDevice, ptr %63, i32 0, i32 5
  %64 = load ptr, ptr %serial70, align 8
  %tobool71 = icmp ne ptr %64, null
  br i1 %tobool71, label %if.end76, label %if.then72

if.then72:                                        ; preds = %if.end69
  %65 = load ptr, ptr %s, align 8
  %drive_serial_str = getelementptr inbounds %struct.IDEState, ptr %65, i32 0, i32 14
  %arraydecay73 = getelementptr inbounds [21 x i8], ptr %drive_serial_str, i64 0, i64 0
  %call74 = call noalias ptr @g_strdup(ptr noundef %arraydecay73)
  %66 = load ptr, ptr %dev.addr, align 8
  %serial75 = getelementptr inbounds %struct.IDEDevice, ptr %66, i32 0, i32 5
  store ptr %call74, ptr %serial75, align 8
  br label %if.end76

if.end76:                                         ; preds = %if.then72, %if.end69
  %67 = load ptr, ptr %dev.addr, align 8
  %conf77 = getelementptr inbounds %struct.IDEDevice, ptr %67, i32 0, i32 2
  %bootindex = getelementptr inbounds %struct.BlockConf, ptr %conf77, i32 0, i32 6
  %68 = load i32, ptr %bootindex, align 4
  %69 = load ptr, ptr %dev.addr, align 8
  %qdev78 = getelementptr inbounds %struct.IDEDevice, ptr %69, i32 0, i32 0
  %70 = load ptr, ptr %dev.addr, align 8
  %unit79 = getelementptr inbounds %struct.IDEDevice, ptr %70, i32 0, i32 1
  %71 = load i32, ptr %unit79, align 8
  %tobool80 = icmp ne i32 %71, 0
  %cond = select i1 %tobool80, ptr @.str.17, ptr @.str.18
  call void @add_boot_device_path(i32 noundef %68, ptr noundef %qdev78, ptr noundef %cond)
  %72 = load ptr, ptr %dev.addr, align 8
  %qdev81 = getelementptr inbounds %struct.IDEDevice, ptr %72, i32 0, i32 0
  %73 = load ptr, ptr %dev.addr, align 8
  %unit82 = getelementptr inbounds %struct.IDEDevice, ptr %73, i32 0, i32 1
  %74 = load i32, ptr %unit82, align 8
  %tobool83 = icmp ne i32 %74, 0
  %cond84 = select i1 %tobool83, ptr @.str.17, ptr @.str.18
  %75 = load ptr, ptr %dev.addr, align 8
  %conf85 = getelementptr inbounds %struct.IDEDevice, ptr %75, i32 0, i32 2
  %lcyls = getelementptr inbounds %struct.BlockConf, ptr %conf85, i32 0, i32 11
  %76 = load i32, ptr %lcyls, align 8
  %77 = load ptr, ptr %dev.addr, align 8
  %conf86 = getelementptr inbounds %struct.IDEDevice, ptr %77, i32 0, i32 2
  %lheads = getelementptr inbounds %struct.BlockConf, ptr %conf86, i32 0, i32 12
  %78 = load i32, ptr %lheads, align 4
  %79 = load ptr, ptr %dev.addr, align 8
  %conf87 = getelementptr inbounds %struct.IDEDevice, ptr %79, i32 0, i32 2
  %lsecs = getelementptr inbounds %struct.BlockConf, ptr %conf87, i32 0, i32 13
  %80 = load i32, ptr %lsecs, align 8
  call void @add_boot_device_lchs(ptr noundef %qdev81, ptr noundef %cond84, i32 noundef %76, i32 noundef %78, i32 noundef %80)
  br label %return

return:                                           ; preds = %if.end76, %if.then60, %if.then50, %if.then43, %if.then37, %if.then33, %if.then28, %if.then3
  ret void
}