; Function Attrs: nounwind sspstrong uwtable
define internal fastcc void @ide_dev_initfn(ptr noundef %dev, i32 noundef range(i32 0, 3) %kind, ptr noundef %errp) unnamed_addr #0 {
entry:
  %parent_bus = getelementptr inbounds nuw i8, ptr %dev, i64 88
  %0 = load ptr, ptr %parent_bus, align 8
  %ifs = getelementptr inbounds nuw i8, ptr %0, i64 136
  %unit = getelementptr inbounds nuw i8, ptr %dev, i64 160
  %1 = load i32, ptr %unit, align 8
  %idx.ext = zext i32 %1 to i64
  %add.ptr2 = getelementptr %struct.IDEState, ptr %ifs, i64 %idx.ext
  %conf = getelementptr inbounds nuw i8, ptr %dev, i64 168
  %2 = load ptr, ptr %conf, align 8
  %tobool.not = icmp eq ptr %2, null
  br i1 %tobool.not, label %if.then, label %if.end15

if.then:                                          ; preds = %entry
  %cmp.not = icmp eq i32 %kind, 1
  br i1 %cmp.not, label %if.else, label %if.then3

if.then3:                                         ; preds = %if.then
  tail call void (ptr, ptr, i32, ptr, ptr, ...) @error_setg_internal(ptr noundef %errp, ptr noundef nonnull @.str.12, i32 noundef 173, ptr noundef nonnull @__func__.ide_dev_initfn, ptr noundef nonnull @.str.13) #6
  br label %return

if.else:                                          ; preds = %if.then
  %call = tail call ptr @qemu_get_aio_context() #6
  %call4 = tail call ptr @blk_new(ptr noundef %call, i64 noundef 0, i64 noundef 15) #6
  store ptr %call4, ptr %conf, align 8
  %call10 = tail call i32 @blk_attach_dev(ptr noundef %call4, ptr noundef nonnull %dev) #6
  %cmp11 = icmp eq i32 %call10, 0
  br i1 %cmp11, label %if.end15, label %if.else13

if.else13:                                        ; preds = %if.else
  tail call void @__assert_fail(ptr noundef nonnull @.str.14, ptr noundef nonnull @.str.12, i32 noundef 179, ptr noundef nonnull @__PRETTY_FUNCTION__.ide_dev_initfn) #7
  unreachable

if.end15:                                         ; preds = %if.else, %entry
  %discard_granularity = getelementptr inbounds nuw i8, ptr %dev, i64 200
  %3 = load i32, ptr %discard_granularity, align 8
  switch i32 %3, label %if.then28 [
    i32 -1, label %if.then18
    i32 0, label %if.end30
    i32 512, label %if.end30
  ]

if.then18:                                        ; preds = %if.end15
  store i32 512, ptr %discard_granularity, align 8
  br label %if.end30

if.then28:                                        ; preds = %if.end15
  tail call void (ptr, ptr, i32, ptr, ptr, ...) @error_setg_internal(ptr noundef %errp, ptr noundef nonnull @.str.12, i32 noundef 187, ptr noundef nonnull @__func__.ide_dev_initfn, ptr noundef nonnull @.str.15) #6
  br label %return

if.end30:                                         ; preds = %if.end15, %if.end15, %if.then18
  %call32 = tail call zeroext i1 @blkconf_blocksizes(ptr noundef nonnull %conf, ptr noundef %errp) #6
  br i1 %call32, label %if.end34, label %return

if.end34:                                         ; preds = %if.end30
  %logical_block_size = getelementptr inbounds nuw i8, ptr %dev, i64 184
  %4 = load i32, ptr %logical_block_size, align 8
  %cmp36.not = icmp eq i32 %4, 512
  br i1 %cmp36.not, label %if.end38, label %if.then37

if.then37:                                        ; preds = %if.end34
  tail call void (ptr, ptr, i32, ptr, ptr, ...) @error_setg_internal(ptr noundef %errp, ptr noundef nonnull @.str.12, i32 noundef 196, ptr noundef nonnull @__func__.ide_dev_initfn, ptr noundef nonnull @.str.16) #6
  br label %return

if.end38:                                         ; preds = %if.end34
  %cmp39 = icmp ne i32 %kind, 1
  br i1 %cmp39, label %if.then40, label %if.end45

if.then40:                                        ; preds = %if.end38
  %chs_trans = getelementptr inbounds nuw i8, ptr %dev, i64 256
  %call42 = tail call zeroext i1 @blkconf_geometry(ptr noundef nonnull %conf, ptr noundef nonnull %chs_trans, i32 noundef 65535, i32 noundef 16, i32 noundef 255, ptr noundef %errp) #6
  br i1 %call42, label %if.end45, label %return

if.end45:                                         ; preds = %if.then40, %if.end38
  %cmp47 = icmp eq i32 %kind, 1
  %call49 = tail call zeroext i1 @blkconf_apply_backend_options(ptr noundef nonnull %conf, i1 noundef zeroext %cmp47, i1 noundef zeroext %cmp39, ptr noundef %errp) #6
  br i1 %call49, label %if.end51, label %return

if.end51:                                         ; preds = %if.end45
  %5 = load ptr, ptr %conf, align 8
  %version = getelementptr inbounds nuw i8, ptr %dev, i64 264
  %6 = load ptr, ptr %version, align 8
  %serial = getelementptr inbounds nuw i8, ptr %dev, i64 272
  %7 = load ptr, ptr %serial, align 8
  %model = getelementptr inbounds nuw i8, ptr %dev, i64 280
  %8 = load ptr, ptr %model, align 8
  %wwn = getelementptr inbounds nuw i8, ptr %dev, i64 288
  %9 = load i64, ptr %wwn, align 8
  %cyls = getelementptr inbounds nuw i8, ptr %dev, i64 204
  %10 = load i32, ptr %cyls, align 4
  %heads = getelementptr inbounds nuw i8, ptr %dev, i64 208
  %11 = load i32, ptr %heads, align 8
  %secs = getelementptr inbounds nuw i8, ptr %dev, i64 212
  %12 = load i32, ptr %secs, align 4
  %chs_trans57 = getelementptr inbounds nuw i8, ptr %dev, i64 256
  %13 = load i32, ptr %chs_trans57, align 8
  %call58 = tail call i32 @ide_init_drive(ptr noundef %add.ptr2, ptr noundef %5, i32 noundef %kind, ptr noundef %6, ptr noundef %7, ptr noundef %8, i64 noundef %9, i32 noundef %10, i32 noundef %11, i32 noundef %12, i32 noundef %13, ptr noundef %errp) #6
  %cmp59 = icmp slt i32 %call58, 0
  br i1 %cmp59, label %return, label %if.end61

if.end61:                                         ; preds = %if.end51
  %14 = load ptr, ptr %version, align 8
  %tobool63.not = icmp eq ptr %14, null
  br i1 %tobool63.not, label %if.then64, label %if.end69

if.then64:                                        ; preds = %if.end61
  %version65 = getelementptr inbounds nuw i8, ptr %add.ptr2, i64 680
  %call67 = tail call noalias ptr @g_strdup(ptr noundef nonnull %version65) #6
  store ptr %call67, ptr %version, align 8
  br label %if.end69

if.end69:                                         ; preds = %if.then64, %if.end61
  %15 = load ptr, ptr %serial, align 8
  %tobool71.not = icmp eq ptr %15, null
  br i1 %tobool71.not, label %if.then72, label %if.end76

if.then72:                                        ; preds = %if.end69
  %drive_serial_str = getelementptr inbounds nuw i8, ptr %add.ptr2, i64 572
  %call74 = tail call noalias ptr @g_strdup(ptr noundef nonnull %drive_serial_str) #6
  store ptr %call74, ptr %serial, align 8
  br label %if.end76

if.end76:                                         ; preds = %if.then72, %if.end69
  %bootindex = getelementptr inbounds nuw i8, ptr %dev, i64 196
  %16 = load i32, ptr %bootindex, align 4
  %17 = load i32, ptr %unit, align 8
  %tobool80.not = icmp eq i32 %17, 0
  %cond = select i1 %tobool80.not, ptr @.str.18, ptr @.str.17
  tail call void @add_boot_device_path(i32 noundef %16, ptr noundef nonnull %dev, ptr noundef nonnull %cond) #6
  %18 = load i32, ptr %unit, align 8
  %tobool83.not = icmp eq i32 %18, 0
  %cond84 = select i1 %tobool83.not, ptr @.str.18, ptr @.str.17
  %lcyls = getelementptr inbounds nuw i8, ptr %dev, i64 216
  %19 = load i32, ptr %lcyls, align 8
  %lheads = getelementptr inbounds nuw i8, ptr %dev, i64 220
  %20 = load i32, ptr %lheads, align 4
  %lsecs = getelementptr inbounds nuw i8, ptr %dev, i64 224
  %21 = load i32, ptr %lsecs, align 8
  tail call void @add_boot_device_lchs(ptr noundef nonnull %dev, ptr noundef nonnull %cond84, i32 noundef %19, i32 noundef %20, i32 noundef %21) #6
  br label %return

return:                                           ; preds = %if.end51, %if.end45, %if.then40, %if.end30, %if.end76, %if.then37, %if.then28, %if.then3
  ret void
}